target datalayout = "e-m:e-p270:32:32-p271:32:32-p272:64:64-i64:64-i128:128-f80:128-n8:16:32:64-S128"
target triple = "x86_64-pc-linux-gnu"

%"class.clang::SourceRange" = type { %"class.clang::SourceLocation", %"class.clang::SourceLocation" }
%"class.clang::SourceLocation" = type { i32 }
%"class.clang::Token" = type <{ i32, i32, ptr, i16, i16, [4 x i8] }>
%"class.clang::OpaquePtr" = type { ptr }
%"class.clang::CXXScopeSpec" = type { %"class.clang::SourceRange", %"class.clang::NestedNameSpecifierLocBuilder", %"class.llvm::ArrayRef" }
%"class.clang::NestedNameSpecifierLocBuilder" = type { ptr, ptr, i32, i32 }
%"class.llvm::ArrayRef" = type { ptr, i64 }
%"class.clang::ActionResult" = type { i64 }

; Function Attrs: mustprogress nounwind uwtable
define linkonce_odr hidden void @_ZN5clang14SourceLocationC2Ev(ptr noundef nonnull align 4 dereferenceable(4) %0) unnamed_addr #0 comdat align 2 {
  %2 = alloca ptr, align 8
  store ptr %0, ptr %2, align 8
  %3 = load ptr, ptr %2, align 8
  %4 = getelementptr inbounds nuw %"class.clang::SourceLocation", ptr %3, i32 0, i32 0
  store i32 0, ptr %4, align 4
  ret void
}

; Function Attrs: mustprogress nounwind uwtable
define linkonce_odr hidden void @_ZN5clang29NestedNameSpecifierLocBuilderD2Ev(ptr noundef nonnull align 8 dereferenceable(24) %0) unnamed_addr #0 comdat align 2 {
  %2 = alloca ptr, align 8
  store ptr %0, ptr %2, align 8
  %3 = load ptr, ptr %2, align 8
  %4 = getelementptr inbounds nuw %"class.clang::NestedNameSpecifierLocBuilder", ptr %3, i32 0, i32 3
  %5 = load i32, ptr %4, align 4
  %6 = icmp ne i32 %5, 0
  br i1 %6, label %7, label %10

7:                                                ; preds = %1
  %8 = getelementptr inbounds nuw %"class.clang::NestedNameSpecifierLocBuilder", ptr %3, i32 0, i32 1
  %9 = load ptr, ptr %8, align 8
  call void @free(ptr noundef %9) #11
  br label %10

10:                                               ; preds = %7, %1
  ret void
}

; Function Attrs: mustprogress nounwind uwtable
define linkonce_odr hidden void @_ZN4llvm8ArrayRefIPN5clang21TemplateParameterListEEC2Ev(ptr noundef nonnull align 8 dereferenceable(16) %0) unnamed_addr #0 comdat align 2 {
  %2 = alloca ptr, align 8
  store ptr %0, ptr %2, align 8
  %3 = load ptr, ptr %2, align 8
  %4 = getelementptr inbounds nuw %"class.llvm::ArrayRef", ptr %3, i32 0, i32 0
  store ptr null, ptr %4, align 8
  %5 = getelementptr inbounds nuw %"class.llvm::ArrayRef", ptr %3, i32 0, i32 1
  store i64 0, ptr %5, align 8
  ret void
}

; Function Attrs: mustprogress nounwind uwtable
define linkonce_odr hidden void @_ZN5clang29NestedNameSpecifierLocBuilderC2Ev(ptr noundef nonnull align 8 dereferenceable(24) %0) unnamed_addr #0 comdat align 2 {
  %2 = alloca ptr, align 8
  store ptr %0, ptr %2, align 8
  %3 = load ptr, ptr %2, align 8
  %4 = getelementptr inbounds nuw %"class.clang::NestedNameSpecifierLocBuilder", ptr %3, i32 0, i32 0
  store ptr null, ptr %4, align 8
  %5 = getelementptr inbounds nuw %"class.clang::NestedNameSpecifierLocBuilder", ptr %3, i32 0, i32 1
  store ptr null, ptr %5, align 8
  %6 = getelementptr inbounds nuw %"class.clang::NestedNameSpecifierLocBuilder", ptr %3, i32 0, i32 2
  store i32 0, ptr %6, align 8
  %7 = getelementptr inbounds nuw %"class.clang::NestedNameSpecifierLocBuilder", ptr %3, i32 0, i32 3
  store i32 0, ptr %7, align 4
  ret void
}

; Function Attrs: mustprogress nounwind uwtable
define linkonce_odr hidden void @_ZN5clang11SourceRangeC2Ev(ptr noundef nonnull align 4 dereferenceable(8) %0) unnamed_addr #0 comdat align 2 {
  %2 = alloca ptr, align 8
  store ptr %0, ptr %2, align 8
  %3 = load ptr, ptr %2, align 8
  %4 = getelementptr inbounds nuw %"class.clang::SourceRange", ptr %3, i32 0, i32 0
  call void @_ZN5clang14SourceLocationC2Ev(ptr noundef nonnull align 4 dereferenceable(4) %4) #11
  %5 = getelementptr inbounds nuw %"class.clang::SourceRange", ptr %3, i32 0, i32 1
  call void @_ZN5clang14SourceLocationC2Ev(ptr noundef nonnull align 4 dereferenceable(4) %5) #11
  ret void
}

; Function Attrs: mustprogress nounwind uwtable
define linkonce_odr hidden void @_ZN5clang12CXXScopeSpecD2Ev(ptr noundef nonnull align 8 dereferenceable(48) %0) unnamed_addr #0 comdat align 2 {
  %2 = alloca ptr, align 8
  store ptr %0, ptr %2, align 8
  %3 = load ptr, ptr %2, align 8
  %4 = getelementptr inbounds nuw %"class.clang::CXXScopeSpec", ptr %3, i32 0, i32 1
  call void @_ZN5clang29NestedNameSpecifierLocBuilderD2Ev(ptr noundef nonnull align 8 dereferenceable(24) %4) #11
  ret void
}

; Function Attrs: mustprogress nounwind uwtable
define linkonce_odr hidden noundef zeroext i1 @_ZNK5clang12ActionResultIPNS_4ExprELb1EE7isUnsetEv(ptr noundef nonnull align 8 dereferenceable(8) %0) #0 comdat align 2 {
  %2 = alloca ptr, align 8
  store ptr %0, ptr %2, align 8
  %3 = load ptr, ptr %2, align 8
  %4 = getelementptr inbounds nuw %"class.clang::ActionResult", ptr %3, i32 0, i32 0
  %5 = load i64, ptr %4, align 8
  %6 = icmp eq i64 %5, 0
  ret i1 %6
}

; Function Attrs: mustprogress nounwind uwtable
define linkonce_odr hidden void @_ZN5clang9OpaquePtrINS_8QualTypeEEC2EDn(ptr noundef nonnull align 8 dereferenceable(8) %0, ptr %1) unnamed_addr #0 comdat align 2 {
  %3 = alloca ptr, align 8
  %4 = alloca ptr, align 8
  store ptr %0, ptr %3, align 8
  store ptr %1, ptr %4, align 8
  %5 = load ptr, ptr %3, align 8
  %6 = getelementptr inbounds nuw %"class.clang::OpaquePtr", ptr %5, i32 0, i32 0
  store ptr null, ptr %6, align 8
  ret void
}

; Function Attrs: mustprogress nounwind uwtable
define linkonce_odr hidden void @_ZN5clang12CXXScopeSpecC2Ev(ptr noundef nonnull align 8 dereferenceable(48) %0) unnamed_addr #0 comdat align 2 {
  %2 = alloca ptr, align 8
  store ptr %0, ptr %2, align 8
  %3 = load ptr, ptr %2, align 8
  %4 = getelementptr inbounds nuw %"class.clang::CXXScopeSpec", ptr %3, i32 0, i32 0
  call void @_ZN5clang11SourceRangeC2Ev(ptr noundef nonnull align 4 dereferenceable(8) %4) #11
  %5 = getelementptr inbounds nuw %"class.clang::CXXScopeSpec", ptr %3, i32 0, i32 1
  call void @_ZN5clang29NestedNameSpecifierLocBuilderC2Ev(ptr noundef nonnull align 8 dereferenceable(24) %5) #11
  %6 = getelementptr inbounds nuw %"class.clang::CXXScopeSpec", ptr %3, i32 0, i32 2
  call void @_ZN4llvm8ArrayRefIPN5clang21TemplateParameterListEEC2Ev(ptr noundef nonnull align 8 dereferenceable(16) %6) #11
  ret void
}

; Function Attrs: mustprogress nounwind uwtable
define dso_local i64 @_ZN5clang6Parser20ParseCXXIdExpressionEb(ptr noundef nonnull align 8 dereferenceable(2936) %0, i1 noundef zeroext %1) #0 align 2 {
  %3 = alloca %"class.clang::ActionResult", align 8
  %4 = alloca ptr, align 8
  %5 = alloca i8, align 1
  %6 = alloca %"class.clang::CXXScopeSpec", align 8
  %7 = alloca %"class.clang::OpaquePtr", align 8
  %8 = alloca %"class.clang::Token", align 8
  %9 = alloca %"class.clang::ActionResult", align 8
  store ptr %0, ptr %4, align 8
  %10 = zext i1 %1 to i8
  store i8 %10, ptr %5, align 1
  %11 = load ptr, ptr %4, align 8
  call void @_ZN5clang12CXXScopeSpecC2Ev(ptr noundef nonnull align 8 dereferenceable(48) %6) #11
  call void @_ZN5clang9OpaquePtrINS_8QualTypeEEC2EDn(ptr noundef nonnull align 8 dereferenceable(8) %7, ptr null)
  %12 = getelementptr inbounds nuw %"class.clang::OpaquePtr", ptr %7, i32 0, i32 0
  %13 = load ptr, ptr %12, align 8
  %14 = call noundef zeroext i1 @_ZN5clang6Parser30ParseOptionalCXXScopeSpecifierERNS_12CXXScopeSpecENS_9OpaquePtrINS_8QualTypeEEEbbPbbPPKNS_14IdentifierInfoEbbb(ptr noundef nonnull align 8 dereferenceable(2936) %11, ptr noundef nonnull align 8 dereferenceable(48) %6, ptr %13, i1 noundef zeroext false, i1 noundef zeroext false, ptr noundef null, i1 noundef zeroext false, ptr noundef null, i1 noundef zeroext false, i1 noundef zeroext false, i1 noundef zeroext false)
  %15 = load i8, ptr %5, align 1
  %16 = trunc i8 %15 to i1
  %17 = call i64 @_ZN5clang6Parser23tryParseCXXIdExpressionERNS_12CXXScopeSpecEbRNS_5TokenE(ptr noundef nonnull align 8 dereferenceable(2936) %11, ptr noundef nonnull align 8 dereferenceable(48) %6, i1 noundef zeroext %16, ptr noundef nonnull align 8 dereferenceable(20) %8)
  %18 = getelementptr inbounds nuw %"class.clang::ActionResult", ptr %3, i32 0, i32 0
  store i64 %17, ptr %18, align 8
  %19 = call noundef zeroext i1 @_ZNK5clang12ActionResultIPNS_4ExprELb1EE7isUnsetEv(ptr noundef nonnull align 8 dereferenceable(8) %3)
  br i1 %19, label %20, label %25

20:                                               ; preds = %2
  call void @_ZN5clang6Parser14UnconsumeTokenERNS_5TokenE(ptr noundef nonnull align 8 dereferenceable(2936) %11, ptr noundef nonnull align 8 dereferenceable(20) %8)
  %21 = load i8, ptr %5, align 1
  %22 = trunc i8 %21 to i1
  %23 = call i64 @_ZN5clang6Parser23tryParseCXXIdExpressionERNS_12CXXScopeSpecEbRNS_5TokenE(ptr noundef nonnull align 8 dereferenceable(2936) %11, ptr noundef nonnull align 8 dereferenceable(48) %6, i1 noundef zeroext %22, ptr noundef nonnull align 8 dereferenceable(20) %8)
  %24 = getelementptr inbounds nuw %"class.clang::ActionResult", ptr %9, i32 0, i32 0
  store i64 %23, ptr %24, align 8
  call void @llvm.memcpy.p0.p0.i64(ptr align 8 %3, ptr align 8 %9, i64 8, i1 false)
  br label %25

25:                                               ; preds = %20, %2
  call void @_ZN5clang12CXXScopeSpecD2Ev(ptr noundef nonnull align 8 dereferenceable(48) %6) #11
  %26 = getelementptr inbounds nuw %"class.clang::ActionResult", ptr %3, i32 0, i32 0
  %27 = load i64, ptr %26, align 8
  ret i64 %27
}