; Function Attrs: mustprogress nounwind uwtable
define dso_local i64 @_ZN5clang6Parser20ParseCXXIdExpressionEb(ptr noundef nonnull align 8 dereferenceable(2936) %0, i1 noundef zeroext %1) local_unnamed_addr #0 align 2 {
  %3 = alloca %"class.clang::CXXScopeSpec", align 8
  %4 = alloca %"class.clang::Token", align 8
  call void @llvm.memset.p0.i64(ptr noundef nonnull align 8 dereferenceable(48) %3, i8 0, i64 48, i1 false)
  %5 = call noundef zeroext i1 @_ZN5clang6Parser30ParseOptionalCXXScopeSpecifierERNS_12CXXScopeSpecENS_9OpaquePtrINS_8QualTypeEEEbbPbbPPKNS_14IdentifierInfoEbbb(ptr noundef nonnull align 8 dereferenceable(2936) %0, ptr noundef nonnull align 8 dereferenceable(48) %3, ptr null, i1 noundef zeroext false, i1 noundef zeroext false, ptr noundef null, i1 noundef zeroext false, ptr noundef null, i1 noundef zeroext false, i1 noundef zeroext false, i1 noundef zeroext false)
  %6 = call i64 @_ZN5clang6Parser23tryParseCXXIdExpressionERNS_12CXXScopeSpecEbRNS_5TokenE(ptr noundef nonnull align 8 dereferenceable(2936) %0, ptr noundef nonnull align 8 dereferenceable(48) %3, i1 noundef zeroext %1, ptr noundef nonnull align 8 dereferenceable(20) %4)
  %7 = icmp eq i64 %6, 0
  br i1 %7, label %8, label %10

8:                                                ; preds = %2
  call void @_ZN5clang6Parser14UnconsumeTokenERNS_5TokenE(ptr noundef nonnull align 8 dereferenceable(2936) %0, ptr noundef nonnull align 8 dereferenceable(20) %4)
  %9 = call i64 @_ZN5clang6Parser23tryParseCXXIdExpressionERNS_12CXXScopeSpecEbRNS_5TokenE(ptr noundef nonnull align 8 dereferenceable(2936) %0, ptr noundef nonnull align 8 dereferenceable(48) %3, i1 noundef zeroext %1, ptr noundef nonnull align 8 dereferenceable(20) %4)
  br label %10

10:                                               ; preds = %8, %2
  %.sroa.02.0 = phi i64 [ %9, %8 ], [ %6, %2 ]
  %11 = getelementptr inbounds nuw i8, ptr %3, i64 28
  %12 = load i32, ptr %11, align 4
  %.not.i.i = icmp eq i32 %12, 0
  br i1 %.not.i.i, label %_ZN5clang12CXXScopeSpecD2Ev.exit, label %13

13:                                               ; preds = %10
  %14 = getelementptr inbounds nuw i8, ptr %3, i64 16
  %15 = load ptr, ptr %14, align 8
  call void @free(ptr noundef %15) #17
  br label %_ZN5clang12CXXScopeSpecD2Ev.exit

_ZN5clang12CXXScopeSpecD2Ev.exit:                 ; preds = %10, %13
  ret i64 %.sroa.02.0
}